; Function Attrs: nounwind ssp uwtable
define dso_local i32 @crypto_aead_xchacha20poly1305_ietf_decrypt_detached(ptr noundef %0, ptr readnone captures(none) %1, ptr noundef nonnull %2, i64 noundef %3, ptr noundef nonnull %4, ptr noundef %5, i64 noundef %6, ptr noundef nonnull %7, ptr noundef nonnull %8) local_unnamed_addr #0 {
  %10 = alloca %struct.crypto_onetimeauth_poly1305_state, align 16
  %11 = alloca [64 x i8], align 16
  %12 = alloca [8 x i8], align 8
  %13 = alloca [16 x i8], align 16
  %14 = alloca [32 x i8], align 16
  %15 = alloca [12 x i8], align 4
  call void @llvm.lifetime.start.p0(i64 32, ptr nonnull %14) #6
  call void @llvm.lifetime.start.p0(i64 12, ptr nonnull %15) #6
  store i32 0, ptr %15, align 4
  %16 = call i32 @crypto_core_hchacha20(ptr noundef nonnull %14, ptr noundef nonnull %7, ptr noundef nonnull %8, ptr noundef null) #6
  %17 = getelementptr inbounds nuw i8, ptr %15, i64 4
  %18 = getelementptr i8, ptr %7, i64 16
  %19 = load i64, ptr %18, align 1
  store i64 %19, ptr %17, align 4
  call void @llvm.lifetime.start.p0(i64 256, ptr nonnull %10) #6
  call void @llvm.lifetime.start.p0(i64 64, ptr nonnull %11) #6
  call void @llvm.lifetime.start.p0(i64 8, ptr nonnull %12) #6
  call void @llvm.lifetime.start.p0(i64 16, ptr nonnull %13) #6
  %20 = call i32 @crypto_stream_chacha20_ietf_ext(ptr noundef nonnull %11, i64 noundef 64, ptr noundef nonnull %15, ptr noundef nonnull %14) #6
  %21 = call i32 @crypto_onetimeauth_poly1305_init(ptr noundef nonnull %10, ptr noundef nonnull %11) #6
  call void @sodium_memzero(ptr noundef nonnull %11, i64 noundef 64) #6
  %22 = call i32 @crypto_onetimeauth_poly1305_update(ptr noundef nonnull %10, ptr noundef %5, i64 noundef %6) #6
  %23 = sub i64 0, %6
  %24 = and i64 %23, 15
  %25 = call i32 @crypto_onetimeauth_poly1305_update(ptr noundef nonnull %10, ptr noundef nonnull @_pad0, i64 noundef %24) #6
  %26 = call i32 @crypto_onetimeauth_poly1305_update(ptr noundef nonnull %10, ptr noundef nonnull %2, i64 noundef %3) #6
  %27 = sub i64 0, %3
  %28 = and i64 %27, 15
  %29 = call i32 @crypto_onetimeauth_poly1305_update(ptr noundef nonnull %10, ptr noundef nonnull @_pad0, i64 noundef %28) #6
  store i64 %6, ptr %12, align 8
  %30 = call i32 @crypto_onetimeauth_poly1305_update(ptr noundef nonnull %10, ptr noundef nonnull %12, i64 noundef 8) #6
  store i64 %3, ptr %12, align 8
  %31 = call i32 @crypto_onetimeauth_poly1305_update(ptr noundef nonnull %10, ptr noundef nonnull %12, i64 noundef 8) #6
  %32 = call i32 @crypto_onetimeauth_poly1305_final(ptr noundef nonnull %10, ptr noundef nonnull %13) #6
  call void @sodium_memzero(ptr noundef nonnull %10, i64 noundef 256) #6
  %33 = call i32 @crypto_verify_16(ptr noundef nonnull %13, ptr noundef nonnull %4) #6
  call void @sodium_memzero(ptr noundef nonnull %13, i64 noundef 16) #6
  %34 = icmp eq ptr %0, null
  br i1 %34, label %_decrypt_detached.exit, label %35

35:                                               ; preds = %9
  %.not.i = icmp eq i32 %33, 0
  br i1 %.not.i, label %37, label %36

36:                                               ; preds = %35
  call void @llvm.memset.p0.i64(ptr noundef nonnull align 1 %0, i8 noundef 0, i64 noundef %3, i1 noundef false) #6
  br label %_decrypt_detached.exit

37:                                               ; preds = %35
  %38 = call i32 @crypto_stream_chacha20_ietf_ext_xor_ic(ptr noundef nonnull %0, ptr noundef nonnull %2, i64 noundef %3, ptr noundef nonnull %15, i32 noundef 1, ptr noundef nonnull %14) #6
  br label %_decrypt_detached.exit

_decrypt_detached.exit:                           ; preds = %9, %36, %37
  %.0.i = phi i32 [ -1, %36 ], [ 0, %37 ], [ %33, %9 ]
  call void @llvm.lifetime.end.p0(i64 16, ptr nonnull %13) #6
  call void @llvm.lifetime.end.p0(i64 8, ptr nonnull %12) #6
  call void @llvm.lifetime.end.p0(i64 64, ptr nonnull %11) #6
  call void @llvm.lifetime.end.p0(i64 256, ptr nonnull %10) #6
  call void @sodium_memzero(ptr noundef nonnull %14, i64 noundef 32) #6
  call void @llvm.lifetime.end.p0(i64 12, ptr nonnull %15) #6
  call void @llvm.lifetime.end.p0(i64 32, ptr nonnull %14) #6
  ret i32 %.0.i
}